target datalayout = "e-m:e-p270:32:32-p271:32:32-p272:64:64-i64:64-i128:128-f80:128-n8:16:32:64-S128"
target triple = "x86_64-unknown-linux-gnu"

%"class.std::__cxx11::basic_string" = type { %"struct.std::__cxx11::basic_string<char>::_Alloc_hider", i64, %union.anon.21 }
%"struct.std::__cxx11::basic_string<char>::_Alloc_hider" = type { ptr }
%union.anon.21 = type { i64, [8 x i8] }
%"class.std::allocator.18" = type { i8 }
%"class.OpenImageIO_v2_6_0::PSDInput" = type { %"class.OpenImageIO_v2_6_0::ImageInput", %"class.std::__cxx11::basic_string", i32, i32, %"class.std::vector.22", %"class.OpenImageIO_v2_6_0::ImageSpec", %"class.OpenImageIO_v2_6_0::ImageSpec", i8, %"struct.OpenImageIO_v2_6_0::TypeDesc", %"class.std::vector.27", %"class.std::vector.3", i16, [4 x float], i8, %"struct.OpenImageIO_v2_6_0::psd_pvt::FileHeader", %"struct.OpenImageIO_v2_6_0::psd_pvt::ColorModeData", %"struct.OpenImageIO_v2_6_0::PSDInput::LayerMaskInfo", %"class.std::vector.40", %"struct.OpenImageIO_v2_6_0::PSDInput::GlobalMaskInfo", [2 x i8], %"struct.OpenImageIO_v2_6_0::PSDInput::ImageDataSection", %"class.OpenImageIO_v2_6_0::ImageBuf" }
%"class.OpenImageIO_v2_6_0::ImageInput" = type { ptr, %"class.OpenImageIO_v2_6_0::ImageSpec", %"class.std::unique_ptr" }
%"class.std::unique_ptr" = type { %"struct.std::__uniq_ptr_data" }
%"struct.std::__uniq_ptr_data" = type { %"class.std::__uniq_ptr_impl" }
%"class.std::__uniq_ptr_impl" = type { %"class.std::tuple.13" }
%"class.std::tuple.13" = type { %"struct.std::_Tuple_impl.14" }
%"struct.std::_Tuple_impl.14" = type { %"struct.std::_Tuple_impl.15", %"struct.std::_Head_base.17" }
%"struct.std::_Tuple_impl.15" = type { %"struct.std::_Head_base.16" }
%"struct.std::_Head_base.16" = type { ptr }
%"struct.std::_Head_base.17" = type { ptr }
%"class.std::vector.22" = type { %"struct.std::_Vector_base.23" }
%"struct.std::_Vector_base.23" = type { %"struct.std::_Vector_base<OpenImageIO_v2_6_0::ImageSpec, std::allocator<OpenImageIO_v2_6_0::ImageSpec>>::_Vector_impl" }
%"struct.std::_Vector_base<OpenImageIO_v2_6_0::ImageSpec, std::allocator<OpenImageIO_v2_6_0::ImageSpec>>::_Vector_impl" = type { %"struct.std::_Vector_base<OpenImageIO_v2_6_0::ImageSpec, std::allocator<OpenImageIO_v2_6_0::ImageSpec>>::_Vector_impl_data" }
%"struct.std::_Vector_base<OpenImageIO_v2_6_0::ImageSpec, std::allocator<OpenImageIO_v2_6_0::ImageSpec>>::_Vector_impl_data" = type { ptr, ptr, ptr }
%"class.OpenImageIO_v2_6_0::ImageSpec" = type { i32, i32, i32, i32, i32, i32, i32, i32, i32, i32, i32, i32, i32, i32, i32, i32, %"struct.OpenImageIO_v2_6_0::TypeDesc", %"class.std::vector", %"class.std::vector.3", i32, i32, i8, %"class.OpenImageIO_v2_6_0::ParamValueList" }
%"class.std::vector" = type { %"struct.std::_Vector_base" }
%"struct.std::_Vector_base" = type { %"struct.std::_Vector_base<OpenImageIO_v2_6_0::TypeDesc, std::allocator<OpenImageIO_v2_6_0::TypeDesc>>::_Vector_impl" }
%"struct.std::_Vector_base<OpenImageIO_v2_6_0::TypeDesc, std::allocator<OpenImageIO_v2_6_0::TypeDesc>>::_Vector_impl" = type { %"struct.std::_Vector_base<OpenImageIO_v2_6_0::TypeDesc, std::allocator<OpenImageIO_v2_6_0::TypeDesc>>::_Vector_impl_data" }
%"struct.std::_Vector_base<OpenImageIO_v2_6_0::TypeDesc, std::allocator<OpenImageIO_v2_6_0::TypeDesc>>::_Vector_impl_data" = type { ptr, ptr, ptr }
%"class.OpenImageIO_v2_6_0::ParamValueList" = type { %"class.std::vector.8" }
%"class.std::vector.8" = type { %"struct.std::_Vector_base.9" }
%"struct.std::_Vector_base.9" = type { %"struct.std::_Vector_base<OpenImageIO_v2_6_0::ParamValue, std::allocator<OpenImageIO_v2_6_0::ParamValue>>::_Vector_impl" }
%"struct.std::_Vector_base<OpenImageIO_v2_6_0::ParamValue, std::allocator<OpenImageIO_v2_6_0::ParamValue>>::_Vector_impl" = type { %"struct.std::_Vector_base<OpenImageIO_v2_6_0::ParamValue, std::allocator<OpenImageIO_v2_6_0::ParamValue>>::_Vector_impl_data" }
%"struct.std::_Vector_base<OpenImageIO_v2_6_0::ParamValue, std::allocator<OpenImageIO_v2_6_0::ParamValue>>::_Vector_impl_data" = type { ptr, ptr, ptr }
%"struct.OpenImageIO_v2_6_0::TypeDesc" = type { i8, i8, i8, i8, i32 }
%"class.std::vector.27" = type { %"struct.std::_Vector_base.28" }
%"struct.std::_Vector_base.28" = type { %"struct.std::_Vector_base<std::vector<OpenImageIO_v2_6_0::PSDInput::ChannelInfo *>, std::allocator<std::vector<OpenImageIO_v2_6_0::PSDInput::ChannelInfo *>>>::_Vector_impl" }
%"struct.std::_Vector_base<std::vector<OpenImageIO_v2_6_0::PSDInput::ChannelInfo *>, std::allocator<std::vector<OpenImageIO_v2_6_0::PSDInput::ChannelInfo *>>>::_Vector_impl" = type { %"struct.std::_Vector_base<std::vector<OpenImageIO_v2_6_0::PSDInput::ChannelInfo *>, std::allocator<std::vector<OpenImageIO_v2_6_0::PSDInput::ChannelInfo *>>>::_Vector_impl_data" }
%"struct.std::_Vector_base<std::vector<OpenImageIO_v2_6_0::PSDInput::ChannelInfo *>, std::allocator<std::vector<OpenImageIO_v2_6_0::PSDInput::ChannelInfo *>>>::_Vector_impl_data" = type { ptr, ptr, ptr }
%"class.std::vector.3" = type { %"struct.std::_Vector_base.4" }
%"struct.std::_Vector_base.4" = type { %"struct.std::_Vector_base<std::__cxx11::basic_string<char>, std::allocator<std::__cxx11::basic_string<char>>>::_Vector_impl" }
%"struct.std::_Vector_base<std::__cxx11::basic_string<char>, std::allocator<std::__cxx11::basic_string<char>>>::_Vector_impl" = type { %"struct.std::_Vector_base<std::__cxx11::basic_string<char>, std::allocator<std::__cxx11::basic_string<char>>>::_Vector_impl_data" }
%"struct.std::_Vector_base<std::__cxx11::basic_string<char>, std::allocator<std::__cxx11::basic_string<char>>>::_Vector_impl_data" = type { ptr, ptr, ptr }
%"struct.OpenImageIO_v2_6_0::psd_pvt::FileHeader" = type { [4 x i8], i16, i16, i32, i32, i16, i16 }
%"struct.OpenImageIO_v2_6_0::psd_pvt::ColorModeData" = type { i32, %"class.std::unique_ptr.32" }
%"class.std::unique_ptr.32" = type { %"struct.std::__uniq_ptr_data.33" }
%"struct.std::__uniq_ptr_data.33" = type { %"class.std::__uniq_ptr_impl.34" }
%"class.std::__uniq_ptr_impl.34" = type { %"class.std::tuple.35" }
%"class.std::tuple.35" = type { %"struct.std::_Tuple_impl.36" }
%"struct.std::_Tuple_impl.36" = type { %"struct.std::_Head_base.39" }
%"struct.std::_Head_base.39" = type { ptr }
%"struct.OpenImageIO_v2_6_0::PSDInput::LayerMaskInfo" = type { i64, i64, i64, %"struct.OpenImageIO_v2_6_0::PSDInput::LayerMaskInfo::LayerInfo" }
%"struct.OpenImageIO_v2_6_0::PSDInput::LayerMaskInfo::LayerInfo" = type { i64, i16, i64, i64 }
%"class.std::vector.40" = type { %"struct.std::_Vector_base.41" }
%"struct.std::_Vector_base.41" = type { %"struct.std::_Vector_base<OpenImageIO_v2_6_0::PSDInput::Layer, std::allocator<OpenImageIO_v2_6_0::PSDInput::Layer>>::_Vector_impl" }
%"struct.std::_Vector_base<OpenImageIO_v2_6_0::PSDInput::Layer, std::allocator<OpenImageIO_v2_6_0::PSDInput::Layer>>::_Vector_impl" = type { %"struct.std::_Vector_base<OpenImageIO_v2_6_0::PSDInput::Layer, std::allocator<OpenImageIO_v2_6_0::PSDInput::Layer>>::_Vector_impl_data" }
%"struct.std::_Vector_base<OpenImageIO_v2_6_0::PSDInput::Layer, std::allocator<OpenImageIO_v2_6_0::PSDInput::Layer>>::_Vector_impl_data" = type { ptr, ptr, ptr }
%"struct.OpenImageIO_v2_6_0::PSDInput::GlobalMaskInfo" = type { i16, [4 x i16], i16, i8 }
%"struct.OpenImageIO_v2_6_0::PSDInput::ImageDataSection" = type <{ %"class.std::vector.45", i8, [7 x i8] }>
%"class.std::vector.45" = type { %"struct.std::_Vector_base.46" }
%"struct.std::_Vector_base.46" = type { %"struct.std::_Vector_base<OpenImageIO_v2_6_0::PSDInput::ChannelInfo, std::allocator<OpenImageIO_v2_6_0::PSDInput::ChannelInfo>>::_Vector_impl" }
%"struct.std::_Vector_base<OpenImageIO_v2_6_0::PSDInput::ChannelInfo, std::allocator<OpenImageIO_v2_6_0::PSDInput::ChannelInfo>>::_Vector_impl" = type { %"struct.std::_Vector_base<OpenImageIO_v2_6_0::PSDInput::ChannelInfo, std::allocator<OpenImageIO_v2_6_0::PSDInput::ChannelInfo>>::_Vector_impl_data" }
%"struct.std::_Vector_base<OpenImageIO_v2_6_0::PSDInput::ChannelInfo, std::allocator<OpenImageIO_v2_6_0::PSDInput::ChannelInfo>>::_Vector_impl_data" = type { ptr, ptr, ptr }
%"class.OpenImageIO_v2_6_0::ImageBuf" = type { %"class.std::unique_ptr.50" }
%"class.std::unique_ptr.50" = type { %"struct.std::__uniq_ptr_data.51" }
%"struct.std::__uniq_ptr_data.51" = type { %"class.std::__uniq_ptr_impl.52" }
%"class.std::__uniq_ptr_impl.52" = type { %"class.std::tuple.53" }
%"class.std::tuple.53" = type { %"struct.std::_Tuple_impl.54" }
%"struct.std::_Tuple_impl.54" = type { %"struct.std::_Tuple_impl.55", %"struct.std::_Head_base.57" }
%"struct.std::_Tuple_impl.55" = type { %"struct.std::_Head_base.56" }
%"struct.std::_Head_base.56" = type { ptr }
%"struct.std::_Head_base.57" = type { ptr }

@.str.70 = private unnamed_addr constant [26 x i8] c"Failed to decode XMP data\00", align 1

; Function Attrs: mustprogress nounwind uwtable
define linkonce_odr void @_ZNSt7__cxx1112basic_stringIcSt11char_traitsIcESaIcEE12_Alloc_hiderD2Ev(ptr noundef nonnull align 8 dereferenceable(8) %this) unnamed_addr #4 comdat align 2 {
entry:
  %this.addr = alloca ptr, align 8
  store ptr %this, ptr %this.addr, align 8
  %this1 = load ptr, ptr %this.addr, align 8
  call void @_ZNSaIcED2Ev(ptr noundef nonnull align 1 dereferenceable(1) %this1) #3
  ret void
}

; Function Attrs: mustprogress uwtable
define linkonce_odr void @_ZNSt7__cxx1112basic_stringIcSt11char_traitsIcESaIcEEC2IS3_EEmcRKS3_(ptr noundef nonnull align 8 dereferenceable(32) %this, i64 noundef %__n, i8 noundef signext %__c, ptr noundef nonnull align 1 dereferenceable(1) %__a) unnamed_addr #6 comdat align 2 personality ptr @__gxx_personality_v0 {
entry:
  %this.addr = alloca ptr, align 8
  %__n.addr = alloca i64, align 8
  %__c.addr = alloca i8, align 1
  %__a.addr = alloca ptr, align 8
  %exn.slot = alloca ptr, align 8
  %ehselector.slot = alloca i32, align 4
  store ptr %this, ptr %this.addr, align 8
  store i64 %__n, ptr %__n.addr, align 8
  store i8 %__c, ptr %__c.addr, align 1
  store ptr %__a, ptr %__a.addr, align 8
  %this1 = load ptr, ptr %this.addr, align 8
  %_M_dataplus = getelementptr inbounds %"class.std::__cxx11::basic_string", ptr %this1, i32 0, i32 0
  %call = call noundef ptr @_ZNSt7__cxx1112basic_stringIcSt11char_traitsIcESaIcEE13_M_local_dataEv(ptr noundef nonnull align 8 dereferenceable(32) %this1)
  %0 = load ptr, ptr %__a.addr, align 8
  call void @_ZNSt7__cxx1112basic_stringIcSt11char_traitsIcESaIcEE12_Alloc_hiderC1EPcRKS3_(ptr noundef nonnull align 8 dereferenceable(8) %_M_dataplus, ptr noundef %call, ptr noundef nonnull align 1 dereferenceable(1) %0)
  %1 = load i64, ptr %__n.addr, align 8
  %2 = load i8, ptr %__c.addr, align 1
  invoke void @_ZNSt7__cxx1112basic_stringIcSt11char_traitsIcESaIcEE12_M_constructEmc(ptr noundef nonnull align 8 dereferenceable(32) %this1, i64 noundef %1, i8 noundef signext %2)
          to label %invoke.cont unwind label %lpad

invoke.cont:                                      ; preds = %entry
  ret void

lpad:                                             ; preds = %entry
  %3 = landingpad { ptr, i32 }
          cleanup
  %4 = extractvalue { ptr, i32 } %3, 0
  store ptr %4, ptr %exn.slot, align 8
  %5 = extractvalue { ptr, i32 } %3, 1
  store i32 %5, ptr %ehselector.slot, align 4
  call void @_ZNSt7__cxx1112basic_stringIcSt11char_traitsIcESaIcEE12_Alloc_hiderD2Ev(ptr noundef nonnull align 8 dereferenceable(8) %_M_dataplus) #3
  br label %eh.resume

eh.resume:                                        ; preds = %lpad
  %exn = load ptr, ptr %exn.slot, align 8
  %sel = load i32, ptr %ehselector.slot, align 4
  %lpad.val = insertvalue { ptr, i32 } poison, ptr %exn, 0
  %lpad.val2 = insertvalue { ptr, i32 } %lpad.val, i32 %sel, 1
  resume { ptr, i32 } %lpad.val2
}

; Function Attrs: mustprogress uwtable
define hidden noundef zeroext i1 @_ZN18OpenImageIO_v2_6_08PSDInput18load_resource_1060Ej(ptr noundef nonnull align 8 dereferenceable(840) %this, i32 noundef %length) #6 align 2 personality ptr @__gxx_personality_v0 {
entry:
  %retval = alloca i1, align 1
  %this.addr = alloca ptr, align 8
  %length.addr = alloca i32, align 4
  %data = alloca %"class.std::__cxx11::basic_string", align 8
  %ref.tmp = alloca %"class.std::allocator.18", align 1
  %exn.slot = alloca ptr, align 8
  %ehselector.slot = alloca i32, align 4
  %cleanup.dest.slot = alloca i32, align 4
  store ptr %this, ptr %this.addr, align 8
  store i32 %length, ptr %length.addr, align 4
  %this1 = load ptr, ptr %this.addr, align 8
  %0 = load i32, ptr %length.addr, align 4
  %conv = zext i32 %0 to i64
  call void @_ZNSaIcEC1Ev(ptr noundef nonnull align 1 dereferenceable(1) %ref.tmp) #3
  invoke void @_ZNSt7__cxx1112basic_stringIcSt11char_traitsIcESaIcEEC2IS3_EEmcRKS3_(ptr noundef nonnull align 8 dereferenceable(32) %data, i64 noundef %conv, i8 noundef signext 0, ptr noundef nonnull align 1 dereferenceable(1) %ref.tmp)
          to label %invoke.cont unwind label %lpad

invoke.cont:                                      ; preds = %entry
  call void @_ZNSaIcED1Ev(ptr noundef nonnull align 1 dereferenceable(1) %ref.tmp) #3
  %call = invoke noundef nonnull align 1 dereferenceable(1) ptr @_ZNSt7__cxx1112basic_stringIcSt11char_traitsIcESaIcEEixEm(ptr noundef nonnull align 8 dereferenceable(32) %data, i64 noundef 0)
          to label %invoke.cont3 unwind label %lpad2

invoke.cont3:                                     ; preds = %invoke.cont
  %1 = load i32, ptr %length.addr, align 4
  %conv4 = zext i32 %1 to i64
  %call6 = invoke noundef zeroext i1 @_ZN18OpenImageIO_v2_6_010ImageInput6ioreadEPvmm(ptr noundef nonnull align 8 dereferenceable(184) %this1, ptr noundef %call, i64 noundef %conv4, i64 noundef 1)
          to label %invoke.cont5 unwind label %lpad2

invoke.cont5:                                     ; preds = %invoke.cont3
  br i1 %call6, label %if.end, label %if.then

if.then:                                          ; preds = %invoke.cont5
  store i1 false, ptr %retval, align 1
  store i32 1, ptr %cleanup.dest.slot, align 4
  br label %cleanup

lpad:                                             ; preds = %entry
  %2 = landingpad { ptr, i32 }
          cleanup
  %3 = extractvalue { ptr, i32 } %2, 0
  store ptr %3, ptr %exn.slot, align 8
  %4 = extractvalue { ptr, i32 } %2, 1
  store i32 %4, ptr %ehselector.slot, align 4
  call void @_ZNSaIcED1Ev(ptr noundef nonnull align 1 dereferenceable(1) %ref.tmp) #3
  br label %eh.resume

lpad2:                                            ; preds = %if.then11, %lor.lhs.false, %if.end, %invoke.cont3, %invoke.cont
  %5 = landingpad { ptr, i32 }
          cleanup
  %6 = extractvalue { ptr, i32 } %5, 0
  store ptr %6, ptr %exn.slot, align 8
  %7 = extractvalue { ptr, i32 } %5, 1
  store i32 %7, ptr %ehselector.slot, align 4
  call void @_ZNSt7__cxx1112basic_stringIcSt11char_traitsIcESaIcEED1Ev(ptr noundef nonnull align 8 dereferenceable(32) %data) #3
  br label %eh.resume

if.end:                                           ; preds = %invoke.cont5
  %m_composite_attribs = getelementptr inbounds %"class.OpenImageIO_v2_6_0::PSDInput", ptr %this1, i32 0, i32 5
  %call8 = invoke noundef zeroext i1 @_ZN18OpenImageIO_v2_6_010decode_xmpERKNSt7__cxx1112basic_stringIcSt11char_traitsIcESaIcEEERNS_9ImageSpecE(ptr noundef nonnull align 8 dereferenceable(32) %data, ptr noundef nonnull align 8 dereferenceable(160) %m_composite_attribs)
          to label %invoke.cont7 unwind label %lpad2

invoke.cont7:                                     ; preds = %if.end
  br i1 %call8, label %lor.lhs.false, label %if.then11

lor.lhs.false:                                    ; preds = %invoke.cont7
  %m_common_attribs = getelementptr inbounds %"class.OpenImageIO_v2_6_0::PSDInput", ptr %this1, i32 0, i32 6
  %call10 = invoke noundef zeroext i1 @_ZN18OpenImageIO_v2_6_010decode_xmpERKNSt7__cxx1112basic_stringIcSt11char_traitsIcESaIcEEERNS_9ImageSpecE(ptr noundef nonnull align 8 dereferenceable(32) %data, ptr noundef nonnull align 8 dereferenceable(160) %m_common_attribs)
          to label %invoke.cont9 unwind label %lpad2

invoke.cont9:                                     ; preds = %lor.lhs.false
  br i1 %call10, label %if.end13, label %if.then11

if.then11:                                        ; preds = %invoke.cont9, %invoke.cont7
  invoke void @_ZNK18OpenImageIO_v2_6_010ImageInput8errorfmtIJEEEvPKcDpRKT_(ptr noundef nonnull align 8 dereferenceable(184) %this1, ptr noundef @.str.70)
          to label %invoke.cont12 unwind label %lpad2

invoke.cont12:                                    ; preds = %if.then11
  store i1 false, ptr %retval, align 1
  store i32 1, ptr %cleanup.dest.slot, align 4
  br label %cleanup

if.end13:                                         ; preds = %invoke.cont9
  store i1 true, ptr %retval, align 1
  store i32 1, ptr %cleanup.dest.slot, align 4
  br label %cleanup

cleanup:                                          ; preds = %if.end13, %invoke.cont12, %if.then
  call void @_ZNSt7__cxx1112basic_stringIcSt11char_traitsIcESaIcEED1Ev(ptr noundef nonnull align 8 dereferenceable(32) %data) #3
  %8 = load i1, ptr %retval, align 1
  ret i1 %8

eh.resume:                                        ; preds = %lpad2, %lpad
  %exn = load ptr, ptr %exn.slot, align 8
  %sel = load i32, ptr %ehselector.slot, align 4
  %lpad.val = insertvalue { ptr, i32 } poison, ptr %exn, 0
  %lpad.val14 = insertvalue { ptr, i32 } %lpad.val, i32 %sel, 1
  resume { ptr, i32 } %lpad.val14
}